; Function Attrs: mustprogress null_pointer_is_valid sspstrong uwtable
define internal noundef ptr @_ZL11createModeli7QString(i32 noundef %0, ptr noundef readonly captures(none) %1) #2 personality ptr @__gxx_personality_v0 {
  %3 = alloca %class.QString, align 8
  %4 = tail call noalias noundef dereferenceable_or_null(120) ptr @_Znwm(i64 noundef 120) #14
  %5 = load ptr, ptr %1, align 8
  store ptr %5, ptr %3, align 8
  %6 = getelementptr inbounds nuw i8, ptr %3, i64 8
  %7 = getelementptr inbounds nuw i8, ptr %1, i64 8
  %8 = load ptr, ptr %7, align 8
  store ptr %8, ptr %6, align 8
  %9 = getelementptr inbounds nuw i8, ptr %3, i64 16
  %10 = getelementptr inbounds nuw i8, ptr %1, i64 16
  %11 = load i64, ptr %10, align 8
  store i64 %11, ptr %9, align 8
  %.not.i.i.i = icmp eq ptr %5, null
  br i1 %.not.i.i.i, label %_ZN7QStringC2ERKS_.exit, label %12

12:                                               ; preds = %2
  %13 = atomicrmw add ptr %5, i32 1 seq_cst, align 4
  br label %_ZN7QStringC2ERKS_.exit

_ZN7QStringC2ERKS_.exit:                          ; preds = %2, %12
  invoke void @_ZN17EndpointDataModelC1Ei7QStringP7QObject(ptr noundef align 8 dereferenceable_or_null(120) %4, i32 noundef %0, ptr noundef nonnull %3, ptr noundef null)
          to label %14 unwind label %19

14:                                               ; preds = %_ZN7QStringC2ERKS_.exit
  %15 = load ptr, ptr %3, align 8
  %.not.i.i.i3 = icmp eq ptr %15, null
  br i1 %.not.i.i.i3, label %_ZN7QStringD2Ev.exit, label %_ZN17QArrayDataPointerIDsE5derefEv.exit.i.i

_ZN17QArrayDataPointerIDsE5derefEv.exit.i.i:      ; preds = %14
  %16 = atomicrmw sub ptr %15, i32 1 seq_cst, align 4
  %.not.i.i = icmp eq i32 %16, 1
  br i1 %.not.i.i, label %17, label %_ZN7QStringD2Ev.exit

17:                                               ; preds = %_ZN17QArrayDataPointerIDsE5derefEv.exit.i.i
  %18 = load ptr, ptr %3, align 8
  call void @_ZN10QArrayData10deallocateEPS_xx(ptr noundef %18, i64 noundef 2, i64 noundef 8) #13
  br label %_ZN7QStringD2Ev.exit

_ZN7QStringD2Ev.exit:                             ; preds = %14, %_ZN17QArrayDataPointerIDsE5derefEv.exit.i.i, %17
  ret ptr %4

19:                                               ; preds = %_ZN7QStringC2ERKS_.exit
  %20 = landingpad { ptr, i32 }
          cleanup
  %21 = load ptr, ptr %3, align 8
  %.not.i.i.i4 = icmp eq ptr %21, null
  br i1 %.not.i.i.i4, label %_ZN7QStringD2Ev.exit7, label %_ZN17QArrayDataPointerIDsE5derefEv.exit.i.i5

_ZN17QArrayDataPointerIDsE5derefEv.exit.i.i5:     ; preds = %19
  %22 = atomicrmw sub ptr %21, i32 1 seq_cst, align 4
  %.not.i.i6 = icmp eq i32 %22, 1
  br i1 %.not.i.i6, label %23, label %_ZN7QStringD2Ev.exit7

23:                                               ; preds = %_ZN17QArrayDataPointerIDsE5derefEv.exit.i.i5
  %24 = load ptr, ptr %3, align 8
  call void @_ZN10QArrayData10deallocateEPS_xx(ptr noundef %24, i64 noundef 2, i64 noundef 8) #13
  br label %_ZN7QStringD2Ev.exit7

_ZN7QStringD2Ev.exit7:                            ; preds = %19, %_ZN17QArrayDataPointerIDsE5derefEv.exit.i.i5, %23
  call void @_ZdlPvm(ptr noundef %4, i64 noundef 120) #15
  resume { ptr, i32 } %20
}